; Function Attrs: nounwind uwtable
define noundef ptr @_ZThn8_N8proxygen21RequestHandlerAdaptor12newExMessageEPNS_16ExMessageHandlerEb(ptr nocapture noundef readonly %this, ptr noundef %exHandler, i1 noundef zeroext %unidirectional) unnamed_addr #8 align 2 personality ptr @__gxx_personality_v0 {
entry:
  %call.i = invoke noalias noundef nonnull dereferenceable(40) ptr @_Znwm(i64 noundef 40) #23
          to label %invoke.cont.i unwind label %terminate.lpad.i

invoke.cont.i:                                    ; preds = %entry
  invoke void @_ZN8proxygen21RequestHandlerAdaptorC1EPNS_14RequestHandlerE(ptr noundef nonnull align 8 dereferenceable(36) %call.i, ptr noundef %exHandler)
          to label %invoke.cont2.i unwind label %terminate.lpad.i

invoke.cont2.i:                                   ; preds = %invoke.cont.i
  %txn_.i.i = getelementptr inbounds i8, ptr %this, i64 16
  %0 = load ptr, ptr %txn_.i.i, align 8
  %vtable.i = load ptr, ptr %0, align 8
  %vfn.i = getelementptr inbounds i8, ptr %vtable.i, i64 184
  %1 = load ptr, ptr %vfn.i, align 8
  %call5.i = invoke noundef ptr %1(ptr noundef nonnull align 8 dereferenceable(912) %0, ptr noundef nonnull %call.i, i1 noundef zeroext %unidirectional)
          to label %_ZN8proxygen21RequestHandlerAdaptor12newExMessageEPNS_16ExMessageHandlerEb.exit unwind label %terminate.lpad.i

terminate.lpad.i:                                 ; preds = %invoke.cont2.i, %invoke.cont.i, %entry
  %2 = landingpad { ptr, i32 }
          catch ptr null
  %3 = extractvalue { ptr, i32 } %2, 0
  tail call void @__clang_call_terminate(ptr %3) #22
  unreachable

_ZN8proxygen21RequestHandlerAdaptor12newExMessageEPNS_16ExMessageHandlerEb.exit: ; preds = %invoke.cont2.i
  %add.ptr6.i = getelementptr inbounds i8, ptr %call.i, i64 8
  ret ptr %add.ptr6.i
}